target datalayout = "e-m:e-p270:32:32-p271:32:32-p272:64:64-i64:64-i128:128-f80:128-n8:16:32:64-S128"
target triple = "x86_64-pc-linux-gnu"

%struct.AVFormatContext = type { ptr, ptr, ptr, ptr, ptr, i32, i32, ptr, i32, ptr, i32, ptr, ptr, i64, i64, i64, i32, i32, i32, i64, i64, ptr, i32, i32, ptr, i32, i32, i32, i32, ptr, i64, i32, i32, %struct.AVIOInterruptCB, i32, i32, i32, i32, i64, i32, i32, i32, i32, i32, i32, i32, i32, i32, i32, i32, i32, i64, i32, i32, i32, i32, i32, ptr, ptr, ptr, ptr, i32, ptr, ptr, ptr, ptr, i32, ptr, ptr, i64, ptr, ptr, ptr, i64 }
%struct.AVIOInterruptCB = type { ptr, ptr }
%struct.RTSPState = type { ptr, ptr, i32, ptr, i32, i64, i32, [512 x i8], i32, i64, i32, i32, i32, [64 x i8], [128 x i8], %struct.HTTPAuthState, [2048 x i8], ptr, i32, ptr, ptr, [1024 x i8], ptr, i64, [4096 x i8], ptr, i32, i32, ptr, i32, i32, ptr, i32, i64, ptr, i32, i32, i32, i32, i32, i32, i32, i32, i32, i32, i64, i32, ptr, [4 x i8], i32, i32, ptr }
%struct.HTTPAuthState = type { i32, [200 x i8], %struct.DigestParams, i32 }
%struct.DigestParams = type { [300 x i8], [10 x i8], [30 x i8], [300 x i8], [10 x i8], i32 }

; Function Attrs: nounwind uwtable
define void @ff_rtsp_close_connections(ptr noundef %0) #0 {
  %2 = alloca ptr, align 8
  %3 = alloca ptr, align 8
  store ptr %0, ptr %2, align 8, !tbaa !15
  call void @llvm.lifetime.start.p0(i64 8, ptr %3) #13
  %4 = load ptr, ptr %2, align 8, !tbaa !15
  %5 = getelementptr inbounds nuw %struct.AVFormatContext, ptr %4, i32 0, i32 3
  %6 = load ptr, ptr %5, align 8, !tbaa !33
  store ptr %6, ptr %3, align 8, !tbaa !46
  %7 = load ptr, ptr %3, align 8, !tbaa !46
  %8 = getelementptr inbounds nuw %struct.RTSPState, ptr %7, i32 0, i32 28
  %9 = load ptr, ptr %8, align 8, !tbaa !167
  %10 = load ptr, ptr %3, align 8, !tbaa !46
  %11 = getelementptr inbounds nuw %struct.RTSPState, ptr %10, i32 0, i32 1
  %12 = load ptr, ptr %11, align 8, !tbaa !163
  %13 = icmp ne ptr %9, %12
  br i1 %13, label %14, label %18

14:                                               ; preds = %1
  %15 = load ptr, ptr %3, align 8, !tbaa !46
  %16 = getelementptr inbounds nuw %struct.RTSPState, ptr %15, i32 0, i32 28
  %17 = call i32 @ffurl_closep(ptr noundef %16)
  br label %18

18:                                               ; preds = %14, %1
  %19 = load ptr, ptr %3, align 8, !tbaa !46
  %20 = getelementptr inbounds nuw %struct.RTSPState, ptr %19, i32 0, i32 28
  store ptr null, ptr %20, align 8, !tbaa !167
  %21 = load ptr, ptr %3, align 8, !tbaa !46
  %22 = getelementptr inbounds nuw %struct.RTSPState, ptr %21, i32 0, i32 1
  %23 = call i32 @ffurl_closep(ptr noundef %22)
  call void @llvm.lifetime.end.p0(i64 8, ptr %3) #13
  ret void
}