; Function Attrs: nounwind uwtable
define void @ff_rtsp_close_connections(ptr noundef readonly captures(none) %0) local_unnamed_addr #2 {
  %2 = getelementptr inbounds nuw i8, ptr %0, i64 24
  %3 = load ptr, ptr %2, align 8, !tbaa !20
  %4 = getelementptr inbounds nuw i8, ptr %3, i64 8880
  %5 = load ptr, ptr %4, align 8, !tbaa !180
  %6 = getelementptr inbounds nuw i8, ptr %3, i64 8
  %7 = load ptr, ptr %6, align 8, !tbaa !176
  %.not = icmp eq ptr %5, %7
  br i1 %.not, label %10, label %8

8:                                                ; preds = %1
  %9 = tail call i32 @ffurl_closep(ptr noundef nonnull %4) #15
  br label %10

10:                                               ; preds = %8, %1
  store ptr null, ptr %4, align 8, !tbaa !180
  %11 = tail call i32 @ffurl_closep(ptr noundef nonnull %6) #15
  ret void
}